; Function Attrs: nounwind uwtable
define ptr @l_List_forIn_x27_loop___at___private_Lean_Elab_MutualInductive_0__Lean_Elab_Command_collectLevelParamsInInductive___spec__1(ptr readnone captures(none) %0, ptr readnone captures(none) %1, ptr readnone captures(none) %2, ptr noundef %3, ptr noundef %4, ptr readnone captures(none) %5) local_unnamed_addr #1 {
  br label %7

7:                                                ; preds = %lean_dec.exit, %6
  %.014 = phi ptr [ %4, %6 ], [ %63, %lean_dec.exit ]
  %.0 = phi ptr [ %3, %6 ], [ %30, %lean_dec.exit ]
  %8 = ptrtoint ptr %.0 to i64
  %9 = and i64 %8, 1
  %.not.i20 = icmp eq i64 %9, 0
  br i1 %.not.i20, label %13, label %10

10:                                               ; preds = %7
  %11 = lshr i64 %8, 1
  %12 = trunc i64 %11 to i32
  br label %lean_obj_tag.exit

13:                                               ; preds = %7
  %14 = getelementptr i8, ptr %.0, i64 4
  %.val.i = load i32, ptr %14, align 4
  %15 = lshr i32 %.val.i, 24
  br label %lean_obj_tag.exit

lean_obj_tag.exit:                                ; preds = %10, %13
  %.0.i = phi i32 [ %12, %10 ], [ %15, %13 ]
  %16 = icmp eq i32 %.0.i, 0
  br i1 %16, label %17, label %18

17:                                               ; preds = %lean_obj_tag.exit
  ret ptr %.014

18:                                               ; preds = %lean_obj_tag.exit
  %19 = getelementptr inbounds nuw i8, ptr %.0, i64 8
  %20 = load ptr, ptr %19, align 8, !tbaa !12
  %21 = ptrtoint ptr %20 to i64
  %22 = and i64 %21, 1
  %.not = icmp eq i64 %22, 0
  br i1 %.not, label %23, label %lean_inc.exit17

23:                                               ; preds = %18
  %.val.i21 = load i32, ptr %20, align 4, !tbaa !8
  %24 = icmp sgt i32 %.val.i21, 0
  br i1 %24, label %25, label %27, !prof !11

25:                                               ; preds = %23
  %26 = add nuw i32 %.val.i21, 1
  store i32 %26, ptr %20, align 4, !tbaa !8
  br label %lean_inc.exit17

27:                                               ; preds = %23
  %.not.i22 = icmp eq i32 %.val.i21, 0
  br i1 %.not.i22, label %lean_inc.exit17, label %28

28:                                               ; preds = %27
  tail call void @lean_inc_ref_cold(ptr noundef nonnull %20) #5
  br label %lean_inc.exit17

lean_inc.exit17:                                  ; preds = %28, %27, %25, %18
  %29 = getelementptr inbounds nuw i8, ptr %.0, i64 16
  %30 = load ptr, ptr %29, align 8, !tbaa !12
  %31 = ptrtoint ptr %30 to i64
  %32 = and i64 %31, 1
  %.not29 = icmp eq i64 %32, 0
  br i1 %.not29, label %33, label %lean_inc.exit16

33:                                               ; preds = %lean_inc.exit17
  %.val.i23 = load i32, ptr %30, align 4, !tbaa !8
  %34 = icmp sgt i32 %.val.i23, 0
  br i1 %34, label %35, label %37, !prof !11

35:                                               ; preds = %33
  %36 = add nuw i32 %.val.i23, 1
  store i32 %36, ptr %30, align 4, !tbaa !8
  br label %lean_inc.exit16

37:                                               ; preds = %33
  %.not.i24 = icmp eq i32 %.val.i23, 0
  br i1 %.not.i24, label %lean_inc.exit16, label %38

38:                                               ; preds = %37
  tail call void @lean_inc_ref_cold(ptr noundef nonnull %30) #5
  br label %lean_inc.exit16

lean_inc.exit16:                                  ; preds = %38, %37, %35, %lean_inc.exit17
  br i1 %.not.i20, label %39, label %lean_dec.exit15

39:                                               ; preds = %lean_inc.exit16
  %40 = load i32, ptr %.0, align 4, !tbaa !8
  %41 = icmp sgt i32 %40, 1
  br i1 %41, label %42, label %44, !prof !11

42:                                               ; preds = %39
  %43 = add nsw i32 %40, -1
  store i32 %43, ptr %.0, align 4, !tbaa !8
  br label %lean_dec.exit15

44:                                               ; preds = %39
  %.not.i = icmp eq i32 %40, 0
  br i1 %.not.i, label %lean_dec.exit15, label %45

45:                                               ; preds = %44
  tail call void @lean_dec_ref_cold(ptr noundef nonnull %.0) #5
  br label %lean_dec.exit15

lean_dec.exit15:                                  ; preds = %45, %44, %42, %lean_inc.exit16
  %46 = getelementptr inbounds nuw i8, ptr %20, i64 16
  %47 = load ptr, ptr %46, align 8, !tbaa !12
  %48 = ptrtoint ptr %47 to i64
  %49 = and i64 %48, 1
  %.not31 = icmp eq i64 %49, 0
  br i1 %.not31, label %50, label %lean_inc.exit

50:                                               ; preds = %lean_dec.exit15
  %.val.i26 = load i32, ptr %47, align 4, !tbaa !8
  %51 = icmp sgt i32 %.val.i26, 0
  br i1 %51, label %52, label %54, !prof !11

52:                                               ; preds = %50
  %53 = add nuw i32 %.val.i26, 1
  store i32 %53, ptr %47, align 4, !tbaa !8
  br label %lean_inc.exit

54:                                               ; preds = %50
  %.not.i27 = icmp eq i32 %.val.i26, 0
  br i1 %.not.i27, label %lean_inc.exit, label %55

55:                                               ; preds = %54
  tail call void @lean_inc_ref_cold(ptr noundef nonnull %47) #5
  br label %lean_inc.exit

lean_inc.exit:                                    ; preds = %55, %54, %52, %lean_dec.exit15
  br i1 %.not, label %56, label %lean_dec.exit

56:                                               ; preds = %lean_inc.exit
  %57 = load i32, ptr %20, align 4, !tbaa !8
  %58 = icmp sgt i32 %57, 1
  br i1 %58, label %59, label %61, !prof !11

59:                                               ; preds = %56
  %60 = add nsw i32 %57, -1
  store i32 %60, ptr %20, align 4, !tbaa !8
  br label %lean_dec.exit

61:                                               ; preds = %56
  %.not.i18 = icmp eq i32 %57, 0
  br i1 %.not.i18, label %lean_dec.exit, label %62

62:                                               ; preds = %61
  tail call void @lean_dec_ref_cold(ptr noundef nonnull %20) #5
  br label %lean_dec.exit

lean_dec.exit:                                    ; preds = %62, %61, %59, %lean_inc.exit
  %63 = tail call ptr @l_Lean_CollectLevelParams_main(ptr noundef %47, ptr noundef %.014) #5
  br label %7
}